Certificate:
    Data:
        Version: 3 (0x2)
        Serial Number: 268435666 (0x100000d2)
        Signature Algorithm: sha256WithRSAEncryption
        Issuer: C=DE, ST=Hessen, O=privacyidea, CN=CA001
        Validity
            Not Before: May  4 12:11:19 2020 GMT
            Not After : May  4 12:11:19 2021 GMT
        Subject: C=DE, ST=Hessen, O=privacyidea, CN=requester.localdomain
        Subject Public Key Info:
            Public Key Algorithm: rsaEncryption
                RSA Public-Key: (2048 bit)
                Modulus:
                    00:cd:be:14:4f:fa:ce:01:3f:42:22:1b:1d:9c:af:
                    dd:92:d2:7f:db:6c:b7:3e:39:43:43:6b:13:03:f1:
                    05:f4:07:74:bc:76:69:28:0b:af:19:8e:d7:fc:e3:
                    cd:c6:58:f2:ca:7f:08:6d:53:fc:07:02:44:24:c6:
                    b4:34:4c:8c:04:fe:33:0e:40:e2:20:ba:02:73:5a:
                    f7:f5:4f:63:6e:cc:c6:b6:df:54:1d:37:39:7d:51:
                    36:26:5f:bd:dc:3f:a8:8b:6b:a2:ae:b6:9d:d6:21:
                    e7:df:41:b8:7a:28:2a:68:48:ca:a8:2d:ed:e1:e9:
                    46:5e:5a:72:6d:b4:84:38:87:91:fd:94:11:0b:28:
                    84:c6:c2:2f:2a:fb:01:f9:36:7a:09:75:d1:33:88:
                    3c:73:41:5b:c8:bf:94:89:70:a1:f0:c0:b9:2e:50:
                    53:1e:b1:17:64:69:f4:2d:81:e0:a9:0d:0e:32:e9:
                    ba:55:8a:85:f1:1b:6f:49:79:b4:7f:88:c3:0d:3e:
                    54:88:9b:3d:1f:38:8c:04:f3:ee:6a:63:2b:f5:c6:
                    db:b4:83:aa:c4:78:41:3a:7d:4b:e1:c8:3e:71:ca:
                    1b:61:59:ea:c6:c4:ca:32:5e:c9:e9:bf:12:29:e6:
                    c6:c3:63:fe:a0:55:da:7a:f1:60:98:4d:26:ed:fa:
                    70:2d
                Exponent: 65537 (0x10001)
        X509v3 extensions:
            X509v3 Key Usage: 
                Digital Signature, Key Encipherment
            X509v3 Basic Constraints: 
                CA:FALSE
            Netscape Cert Type: 
                SSL Server
            Netscape Comment: 
                OpenSSL Generated Server Certificate
            X509v3 Subject Key Identifier: 
                53:3F:ED:5D:09:07:B3:65:7B:AB:45:C9:24:5B:09:77:80:0A:96:ED
            X509v3 Authority Key Identifier: 
                keyid:F4:A7:C0:CC:91:46:AF:64:F3:91:F2:27:F8:C8:B2:6F:8A:87:32:73
                DirName:/C=DE/ST=Hessen/O=privacyidea/CN=CA001
                serial:FB:C8:EB:AC:83:CD:12:07

            X509v3 Extended Key Usage: 
                TLS Web Server Authentication
    Signature Algorithm: sha256WithRSAEncryption
         33:a2:d9:24:4d:ea:e3:84:c5:b9:b7:57:5c:a5:5a:a6:ef:2c:
         1b:92:f1:32:8e:2f:e1:54:ed:0f:21:24:19:eb:40:21:2d:4b:
         f6:7e:6c:5b:c7:ca:5c:7f:e7:08:8c:56:23:31:f4:c4:6c:c2:
         e3:0a:f2:21:8f:68:83:b2:2d:f4:8f:e9:56:a6:e3:bc:f3:a4:
         8a:7c:55:a5:50:95:2b:d7:aa:e3:3a:f4:fa:70:0d:15:70:71:
         13:85:1e:b2:8e:4d:03:77:68:0d:ff:a5:c6:cd:28:5e:ec:ce:
         37:f3:4f:8b:06:d9:57:55:09:d5:f6:a2:0e:f3:1d:b1:e7:38:
         83:9e:f1:b0:a6:65:44:d1:8a:41:a8:b1:1c:4b:84:76:a8:ec:
         e9:fd:32:3f:92:bc:be:22:8a:94:43:af:86:90:60:00:31:4e:
         48:e7:67:1e:5b:9a:e5:25:19:d9:84:f3:09:a1:f8:58:4a:b5:
         24:f1:c1:59:ea:d8:49:e2:5b:51:51:50:ab:9e:d9:8c:c7:2d:
         ab:b5:1e:ba:26:16:94:a0:b4:67:ab:cf:bc:b3:96:07:6b:61:
         02:bf:d0:07:19:91:b9:16:18:5b:6f:c2:55:e0:8d:f7:89:1f:
         c5:25:e4:e0:a7:75:f5:44:c2:d8:01:d4:6b:3b:b5:f9:5a:79:
         f0:99:84:9e
-----BEGIN CERTIFICATE-----
MIIEJjCCAw6gAwIBAgIEEAAA0jANBgkqhkiG9w0BAQsFADBEMQswCQYDVQQGEwJE
RTEPMA0GA1UECAwGSGVzc2VuMRQwEgYDVQQKDAtwcml2YWN5aWRlYTEOMAwGA1UE
AwwFQ0EwMDEwHhcNMjAwNTA0MTIxMTE5WhcNMjEwNTA0MTIxMTE5WjBUMQswCQYD
VQQGEwJERTEPMA0GA1UECAwGSGVzc2VuMRQwEgYDVQQKDAtwcml2YWN5aWRlYTEe
MBwGA1UEAwwVcmVxdWVzdGVyLmxvY2FsZG9tYWluMIIBIjANBgkqhkiG9w0BAQEF
AAOCAQ8AMIIBCgKCAQEAzb4UT/rOAT9CIhsdnK/dktJ/22y3PjlDQ2sTA/EF9Ad0
vHZpKAuvGY7X/OPNxljyyn8IbVP8BwJEJMa0NEyMBP4zDkDiILoCc1r39U9jbszG
tt9UHTc5fVE2Jl+93D+oi2uirrad1iHn30G4eigqaEjKqC3t4elGXlpybbSEOIeR
/ZQRCyiExsIvKvsB+TZ6CXXRM4g8c0FbyL+UiXCh8MC5LlBTHrEXZGn0LYHgqQ0O
Mum6VYqF8RtvSXm0f4jDDT5UiJs9HziMBPPuamMr9cbbtIOqxHhBOn1L4cg+ccob
YVnqxsTKMl7J6b8SKebGw2P+oFXaevFgmE0m7fpwLQIDAQABo4IBDjCCAQowCwYD
VR0PBAQDAgWgMAkGA1UdEwQCMAAwEQYJYIZIAYb4QgEBBAQDAgZAMDMGCWCGSAGG
+EIBDQQmFiRPcGVuU1NMIEdlbmVyYXRlZCBTZXJ2ZXIgQ2VydGlmaWNhdGUwHQYD
VR0OBBYEFFM/7V0JB7Nle6tFySRbCXeACpbtMHQGA1UdIwRtMGuAFPSnwMyRRq9k
85HyJ/jIsm+KhzJzoUikRjBEMQswCQYDVQQGEwJERTEPMA0GA1UECAwGSGVzc2Vu
MRQwEgYDVQQKDAtwcml2YWN5aWRlYTEOMAwGA1UEAwwFQ0EwMDGCCQD7yOusg80S
BzATBgNVHSUEDDAKBggrBgEFBQcDATANBgkqhkiG9w0BAQsFAAOCAQEAM6LZJE3q
44TFubdXXKVapu8sG5LxMo4v4VTtDyEkGetAIS1L9n5sW8fKXH/nCIxWIzH0xGzC
4wryIY9og7It9I/pVqbjvPOkinxVpVCVK9eq4zr0+nANFXBxE4Ueso5NA3doDf+l
xs0oXuzON/NPiwbZV1UJ1faiDvMdsec4g57xsKZlRNGKQaixHEuEdqjs6f0yP5K8
viKKlEOvhpBgADFOSOdnHlua5SUZ2YTzCaH4WEq1JPHBWerYSeJbUVFQq57ZjMct
q7UeuiYWlKC0Z6vPvLOWB2thAr/QBxmRuRYYW2/CVeCN94kfxSXk4Kd19UTC2AHU
azu1+Vp58JmEng==
-----END CERTIFICATE-----
