Certificate:
    Data:
        Version: 3 (0x2)
        Serial Number: 268435668 (0x100000d4)
        Signature Algorithm: sha256WithRSAEncryption
        Issuer: C=DE, ST=Hessen, O=privacyidea, CN=CA001
        Validity
            Not Before: May  4 12:12:50 2020 GMT
            Not After : May  4 12:12:50 2021 GMT
        Subject: CN=selfservice,CN=user,O=realm1/emailAddress=meine
        Subject Public Key Info:
            Public Key Algorithm: rsaEncryption
                RSA Public-Key: (2048 bit)
                Modulus:
                    00:cf:3c:d4:33:0e:12:c4:e6:da:cd:b6:56:a1:1c:
                    26:bb:26:1c:8a:4a:73:a8:58:8a:b6:1e:b3:8b:99:
                    d2:1d:07:c2:92:89:79:c0:69:d8:c8:df:28:61:98:
                    1e:b3:fe:ae:2b:bd:78:a9:f7:6e:47:dc:a3:a0:16:
                    8c:85:02:c1:4e:92:fd:72:6e:f0:c8:03:29:9b:b8:
                    00:6e:c0:83:95:c8:34:20:36:9c:b3:e5:e4:e6:76:
                    73:a3:1a:ad:40:96:e0:53:54:00:ec:76:79:9a:c6:
                    0d:7e:b6:bd:29:ec:83:f3:cb:89:a4:cb:6c:00:ba:
                    0c:c5:78:0f:ff:69:b8:94:f4:04:70:43:3f:d8:9e:
                    d7:a7:fb:5d:ce:75:8e:da:e7:c4:07:b1:9d:de:6f:
                    88:4b:b6:4d:9a:cf:f9:bc:fa:9f:cd:32:6d:f6:3a:
                    0b:0d:23:42:78:ec:97:42:bf:0e:4d:60:56:e1:d3:
                    02:f2:19:cb:84:57:90:e5:70:a1:a2:83:35:86:e2:
                    da:86:9f:f9:8a:c4:79:b3:52:28:da:cb:bb:34:ca:
                    d3:da:91:4a:cf:8d:76:a2:b2:6b:9b:f9:96:fd:09:
                    2a:da:11:23:4d:f0:cb:d6:b2:b1:0e:12:6c:9a:19:
                    65:98:87:ca:e4:ee:24:ce:44:ac:90:8f:9d:1b:c5:
                    2a:9d
                Exponent: 65537 (0x10001)
        X509v3 extensions:
            X509v3 Key Usage: 
                Digital Signature, Key Encipherment
            X509v3 Basic Constraints: 
                CA:FALSE
            Netscape Cert Type: 
                SSL Server
            Netscape Comment: 
                OpenSSL Generated Server Certificate
            X509v3 Subject Key Identifier: 
                4D:07:90:AD:FF:1D:0D:E7:1A:DD:D6:2E:FA:BA:34:CB:AA:1F:24:C6
            X509v3 Authority Key Identifier: 
                keyid:F4:A7:C0:CC:91:46:AF:64:F3:91:F2:27:F8:C8:B2:6F:8A:87:32:73
                DirName:/C=DE/ST=Hessen/O=privacyidea/CN=CA001
                serial:FB:C8:EB:AC:83:CD:12:07

            X509v3 Extended Key Usage: 
                TLS Web Server Authentication
    Signature Algorithm: sha256WithRSAEncryption
         b8:6e:55:8a:59:63:28:82:9b:43:ec:ac:ef:e8:7e:b0:42:37:
         06:24:1a:f3:e2:df:ba:16:1c:51:9a:34:08:20:46:c4:0c:94:
         a7:2c:10:2a:45:c5:64:d2:0f:09:4a:48:dd:e5:08:76:49:85:
         4b:bb:d5:fa:20:12:a4:6d:cc:fb:44:b0:a5:17:32:25:a5:21:
         29:2a:39:ca:a1:dc:87:ab:13:1a:3d:19:c5:1e:46:1f:32:4f:
         11:d0:ee:ad:8b:68:86:93:c9:08:34:e8:f7:b3:82:77:0e:7c:
         6e:2e:2e:f4:a4:c2:66:35:5b:5c:85:38:0a:aa:00:53:63:bb:
         1d:52:af:96:5a:af:f1:c8:d9:28:7c:54:41:aa:64:4e:f9:44:
         b4:04:6a:46:87:3d:28:d1:d3:7e:c3:a3:4a:cf:90:9f:d4:3e:
         26:7d:d8:6a:df:a8:b5:fd:e8:81:9a:83:b9:a6:59:2d:fb:ce:
         a8:54:6a:4b:9c:f6:c4:0a:94:44:e9:14:f8:73:a3:db:ce:c0:
         a8:04:4c:62:3b:09:fb:ba:70:32:6e:3a:c5:30:b9:8a:17:c0:
         63:d6:da:00:fa:68:20:f8:61:4b:84:c7:53:72:89:20:3a:73:
         ef:a2:a9:b5:d4:56:34:e7:01:34:d9:3f:d2:e8:97:5e:fb:fb:
         bd:c2:6a:29
-----BEGIN CERTIFICATE-----
MIIEDzCCAvegAwIBAgIEEAAA1DANBgkqhkiG9w0BAQsFADBEMQswCQYDVQQGEwJE
RTEPMA0GA1UECAwGSGVzc2VuMRQwEgYDVQQKDAtwcml2YWN5aWRlYTEOMAwGA1UE
AwwFQ0EwMDEwHhcNMjAwNTA0MTIxMjUwWhcNMjEwNTA0MTIxMjUwWjA9MSUwIwYD
VQQDDBxzZWxmc2VydmljZSxDTj11c2VyLE89cmVhbG0xMRQwEgYJKoZIhvcNAQkB
FgVtZWluZTCCASIwDQYJKoZIhvcNAQEBBQADggEPADCCAQoCggEBAM881DMOEsTm
2s22VqEcJrsmHIpKc6hYirYes4uZ0h0HwpKJecBp2MjfKGGYHrP+riu9eKn3bkfc
o6AWjIUCwU6S/XJu8MgDKZu4AG7Ag5XINCA2nLPl5OZ2c6MarUCW4FNUAOx2eZrG
DX62vSnsg/PLiaTLbAC6DMV4D/9puJT0BHBDP9ie16f7Xc51jtrnxAexnd5viEu2
TZrP+bz6n80ybfY6Cw0jQnjsl0K/Dk1gVuHTAvIZy4RXkOVwoaKDNYbi2oaf+YrE
ebNSKNrLuzTK09qRSs+NdqKya5v5lv0JKtoRI03wy9aysQ4SbJoZZZiHyuTuJM5E
rJCPnRvFKp0CAwEAAaOCAQ4wggEKMAsGA1UdDwQEAwIFoDAJBgNVHRMEAjAAMBEG
CWCGSAGG+EIBAQQEAwIGQDAzBglghkgBhvhCAQ0EJhYkT3BlblNTTCBHZW5lcmF0
ZWQgU2VydmVyIENlcnRpZmljYXRlMB0GA1UdDgQWBBRNB5Ct/x0N5xrd1i76ujTL
qh8kxjB0BgNVHSMEbTBrgBT0p8DMkUavZPOR8if4yLJviocyc6FIpEYwRDELMAkG
A1UEBhMCREUxDzANBgNVBAgMBkhlc3NlbjEUMBIGA1UECgwLcHJpdmFjeWlkZWEx
DjAMBgNVBAMMBUNBMDAxggkA+8jrrIPNEgcwEwYDVR0lBAwwCgYIKwYBBQUHAwEw
DQYJKoZIhvcNAQELBQADggEBALhuVYpZYyiCm0PsrO/ofrBCNwYkGvPi37oWHFGa
NAggRsQMlKcsECpFxWTSDwlKSN3lCHZJhUu71fogEqRtzPtEsKUXMiWlISkqOcqh
3IerExo9GcUeRh8yTxHQ7q2LaIaTyQg06PezgncOfG4uLvSkwmY1W1yFOAqqAFNj
ux1Sr5Zar/HI2Sh8VEGqZE75RLQEakaHPSjR037Do0rPkJ/UPiZ92GrfqLX96IGa
g7mmWS37zqhUakuc9sQKlETpFPhzo9vOwKgETGI7Cfu6cDJuOsUwuYoXwGPW2gD6
aCD4YUuEx1NyiSA6c++iqbXUVjTnATTZP9Lol177+73Caik=
-----END CERTIFICATE-----
