Certificate:
    Data:
        Version: 3 (0x2)
        Serial Number: 268435667 (0x100000d3)
        Signature Algorithm: sha256WithRSAEncryption
        Issuer: C=DE, ST=Hessen, O=privacyidea, CN=CA001
        Validity
            Not Before: May  4 12:11:20 2020 GMT
            Not After : May  4 12:11:20 2021 GMT
        Subject: OU=realm1, CN=cornelius/emailAddress=user@localhost.localdomain
        Subject Public Key Info:
            Public Key Algorithm: rsaEncryption
                RSA Public-Key: (2048 bit)
                Modulus:
                    00:c0:5c:13:21:91:d1:f8:76:58:ae:b0:e5:f3:9f:
                    b3:f4:ff:69:6d:38:6f:b2:ac:a4:f4:58:84:a0:5c:
                    59:75:b7:01:fe:a2:2d:8c:80:1d:3e:b9:24:b4:71:
                    92:5e:ec:7b:48:7d:9e:6d:18:de:51:ea:60:4a:db:
                    85:da:25:10:41:d7:3f:a8:38:dc:3f:bf:df:62:19:
                    27:1b:3a:a1:f1:99:28:91:59:2a:30:cf:4c:3a:66:
                    20:b3:23:0e:3e:ab:e7:68:9c:c3:7f:38:e6:61:d1:
                    49:cc:dc:2d:ef:62:87:04:49:64:3b:01:0f:0a:03:
                    b7:94:fd:0e:29:93:f1:83:ec:e5:21:c5:bc:a8:b3:
                    0d:fe:e3:1f:3b:dc:56:7d:85:50:a4:eb:38:c2:b6:
                    58:77:9d:3f:06:b7:79:eb:01:79:7e:2a:1c:91:2e:
                    9a:1a:2d:95:b4:d7:9d:41:40:86:50:39:09:3b:fe:
                    47:04:11:28:69:77:b2:23:93:06:56:7b:ea:a3:b5:
                    99:3b:97:15:1f:d8:99:e4:9a:4a:b5:30:df:80:8a:
                    56:3f:46:12:f6:a8:e9:da:05:90:d8:bf:5e:68:37:
                    c9:a0:85:db:36:59:7c:05:8b:a7:0e:21:f1:12:7d:
                    10:4f:14:e3:67:34:c6:04:c6:ac:ce:11:33:30:c9:
                    67:f3
                Exponent: 65537 (0x10001)
        X509v3 extensions:
            X509v3 Key Usage: 
                Digital Signature, Key Encipherment
            X509v3 Basic Constraints: 
                CA:FALSE
            Netscape Cert Type: 
                SSL Server
            Netscape Comment: 
                OpenSSL Generated Server Certificate
            X509v3 Subject Key Identifier: 
                25:36:30:E7:33:48:60:4A:5C:C7:62:30:84:85:87:10:6B:8C:0D:14
            X509v3 Authority Key Identifier: 
                keyid:F4:A7:C0:CC:91:46:AF:64:F3:91:F2:27:F8:C8:B2:6F:8A:87:32:73
                DirName:/C=DE/ST=Hessen/O=privacyidea/CN=CA001
                serial:FB:C8:EB:AC:83:CD:12:07

            X509v3 Extended Key Usage: 
                TLS Web Server Authentication
    Signature Algorithm: sha256WithRSAEncryption
         23:67:a8:e5:be:dc:c7:67:e9:75:4b:0c:94:38:18:f6:17:a3:
         79:ff:f2:cb:e4:6c:a1:b6:29:ae:37:c9:a2:ac:0d:13:78:80:
         64:b9:2d:6d:f2:51:31:5e:a9:72:db:fe:d4:20:d0:ca:96:45:
         7b:bb:35:9a:f8:e7:8c:dd:e6:03:f4:0e:49:7f:68:41:40:ad:
         5c:9d:ee:56:b8:94:a0:b4:0f:76:c8:7b:cb:f4:04:81:c2:97:
         6b:2f:33:a6:3f:bb:20:fb:f6:97:5e:5f:81:46:ae:40:0b:e9:
         53:21:92:40:b8:04:5e:86:b6:15:26:c8:80:25:af:31:d5:80:
         84:89:43:d7:8b:b9:2d:d4:1a:99:5b:62:24:b3:3a:79:5d:30:
         4b:ff:b4:7b:9b:6c:4c:02:7a:34:96:19:ba:16:91:eb:62:b7:
         d3:05:b9:f5:f9:96:6c:05:dc:d0:fb:d9:0e:19:21:ca:88:1e:
         1a:72:d8:99:a4:55:b4:e6:78:18:68:26:b0:8b:2f:ec:b3:56:
         2c:60:88:87:10:68:ed:dd:a8:0b:ac:98:65:44:5c:55:58:9b:
         7f:3b:5f:2f:3b:d1:a5:9e:6b:eb:87:ef:2b:21:ba:b7:6e:d1:
         8b:ab:22:5c:b9:0a:0a:57:e5:02:31:57:33:32:7f:a3:25:e3:
         2d:5d:12:cd
-----BEGIN CERTIFICATE-----
MIIEIjCCAwqgAwIBAgIEEAAA0zANBgkqhkiG9w0BAQsFADBEMQswCQYDVQQGEwJE
RTEPMA0GA1UECAwGSGVzc2VuMRQwEgYDVQQKDAtwcml2YWN5aWRlYTEOMAwGA1UE
AwwFQ0EwMDEwHhcNMjAwNTA0MTIxMTIwWhcNMjEwNTA0MTIxMTIwWjBQMQ8wDQYD
VQQLDAZyZWFsbTExEjAQBgNVBAMMCWNvcm5lbGl1czEpMCcGCSqGSIb3DQEJARYa
dXNlckBsb2NhbGhvc3QubG9jYWxkb21haW4wggEiMA0GCSqGSIb3DQEBAQUAA4IB
DwAwggEKAoIBAQDAXBMhkdH4dliusOXzn7P0/2ltOG+yrKT0WISgXFl1twH+oi2M
gB0+uSS0cZJe7HtIfZ5tGN5R6mBK24XaJRBB1z+oONw/v99iGScbOqHxmSiRWSow
z0w6ZiCzIw4+q+donMN/OOZh0UnM3C3vYocESWQ7AQ8KA7eU/Q4pk/GD7OUhxbyo
sw3+4x873FZ9hVCk6zjCtlh3nT8Gt3nrAXl+KhyRLpoaLZW0151BQIZQOQk7/kcE
EShpd7IjkwZWe+qjtZk7lxUf2Jnkmkq1MN+AilY/RhL2qOnaBZDYv15oN8mghds2
WXwFi6cOIfESfRBPFONnNMYExqzOETMwyWfzAgMBAAGjggEOMIIBCjALBgNVHQ8E
BAMCBaAwCQYDVR0TBAIwADARBglghkgBhvhCAQEEBAMCBkAwMwYJYIZIAYb4QgEN
BCYWJE9wZW5TU0wgR2VuZXJhdGVkIFNlcnZlciBDZXJ0aWZpY2F0ZTAdBgNVHQ4E
FgQUJTYw5zNIYEpcx2IwhIWHEGuMDRQwdAYDVR0jBG0wa4AU9KfAzJFGr2TzkfIn
+Miyb4qHMnOhSKRGMEQxCzAJBgNVBAYTAkRFMQ8wDQYDVQQIDAZIZXNzZW4xFDAS
BgNVBAoMC3ByaXZhY3lpZGVhMQ4wDAYDVQQDDAVDQTAwMYIJAPvI66yDzRIHMBMG
A1UdJQQMMAoGCCsGAQUFBwMBMA0GCSqGSIb3DQEBCwUAA4IBAQAjZ6jlvtzHZ+l1
SwyUOBj2F6N5//LL5GyhtimuN8mirA0TeIBkuS1t8lExXqly2/7UINDKlkV7uzWa
+OeM3eYD9A5Jf2hBQK1cne5WuJSgtA92yHvL9ASBwpdrLzOmP7sg+/aXXl+BRq5A
C+lTIZJAuARehrYVJsiAJa8x1YCEiUPXi7kt1BqZW2Ikszp5XTBL/7R7m2xMAno0
lhm6FpHrYrfTBbn1+ZZsBdzQ+9kOGSHKiB4actiZpFW05ngYaCawiy/ss1YsYIiH
EGjt3agLrJhlRFxVWJt/O18vO9Glnmvrh+8rIbq3btGLqyJcuQoKV+UCMVczMn+j
JeMtXRLN
-----END CERTIFICATE-----
